(dp0
S'4096'
p1
S'/nfs/.three_halves.swp'
p2
sS'218'
p3
S'/nfs/sd'
p4
sS'219'
p5
S'/nfs/balls.txt'
p6
sS'0'
p7
S'/nfs/.three_halves.swp'
p8
sS'16384'
p9
S'/nfs/.three_halves.swp'
p10
sS'242'
p11
S'/nfs/file3'
p12
sS'24576'
p13
S'/nfs/.three_halves.swp'
p14
sS'236'
p15
S'/nfs/file4'
p16
sS'237'
p17
S'/nfs/folder/ohno'
p18
sS'221'
p19
S'/nfs/folder/wenis'
p20
s.